target datalayout = "e-m:e-p270:32:32-p271:32:32-p272:64:64-i64:64-i128:128-f80:128-n8:16:32:64-S128"
target triple = "x86_64-pc-linux-gnu"

%"class.open3d::camera::PinholeCameraIntrinsic" = type { %"class.open3d::utility::IJsonConvertible", i32, i32, %"class.Eigen::Matrix" }
%"class.open3d::utility::IJsonConvertible" = type { ptr }
%"class.Eigen::Matrix" = type { %"class.Eigen::PlainObjectBase" }
%"class.Eigen::PlainObjectBase" = type { %"class.Eigen::DenseStorage" }
%"class.Eigen::DenseStorage" = type { %"struct.Eigen::internal::plain_array" }
%"struct.Eigen::internal::plain_array" = type { [9 x double] }

@_ZTVN6open3d7utility16IJsonConvertibleE = external unnamed_addr constant { [7 x ptr] }, align 8

; Function Attrs: mustprogress nounwind ssp uwtable
define linkonce_odr void @_ZN5Eigen9DenseBaseINS_6MatrixIdLi3ELi3ELi0ELi3ELi3EEEEC2Ev(ptr noundef nonnull align 1 dereferenceable(1) %0) unnamed_addr #0 comdat align 2 {
  %2 = alloca ptr, align 8
  store ptr %0, ptr %2, align 8, !tbaa !58
  ret void
}

; Function Attrs: mustprogress ssp uwtable
define linkonce_odr void @_ZN5Eigen10MatrixBaseINS_6MatrixIdLi3ELi3ELi0ELi3ELi3EEEEC2Ev(ptr noundef nonnull align 1 dereferenceable(1) %0) unnamed_addr #1 comdat align 2 {
  %2 = alloca ptr, align 8
  store ptr %0, ptr %2, align 8, !tbaa !54
  %3 = load ptr, ptr %2, align 8
  call void @_ZN5Eigen9DenseBaseINS_6MatrixIdLi3ELi3ELi0ELi3ELi3EEEEC2Ev(ptr noundef nonnull align 1 dereferenceable(1) %3)
  ret void
}

; Function Attrs: inlinehint mustprogress ssp uwtable
define linkonce_odr void @_ZN5Eigen15PlainObjectBaseINS_6MatrixIdLi3ELi3ELi0ELi3ELi3EEEEC2ERKS3_(ptr noundef nonnull align 8 dereferenceable(72) %0, ptr noundef nonnull align 8 dereferenceable(72) %1) unnamed_addr #6 comdat align 2 {
  %3 = alloca ptr, align 8
  %4 = alloca ptr, align 8
  store ptr %0, ptr %3, align 8, !tbaa !52
  store ptr %1, ptr %4, align 8, !tbaa !52
  %5 = load ptr, ptr %3, align 8
  call void @_ZN5Eigen10MatrixBaseINS_6MatrixIdLi3ELi3ELi0ELi3ELi3EEEEC2Ev(ptr noundef nonnull align 1 dereferenceable(1) %5)
  %6 = getelementptr inbounds nuw %"class.Eigen::PlainObjectBase", ptr %5, i32 0, i32 0
  %7 = load ptr, ptr %4, align 8, !tbaa !52
  %8 = getelementptr inbounds nuw %"class.Eigen::PlainObjectBase", ptr %7, i32 0, i32 0
  call void @llvm.memcpy.p0.p0.i64(ptr align 8 %6, ptr align 8 %8, i64 72, i1 false), !tbaa.struct !99
  ret void
}

; Function Attrs: mustprogress nounwind ssp uwtable
define linkonce_odr void @_ZN6open3d7utility16IJsonConvertibleD2Ev(ptr noundef nonnull align 8 dereferenceable(8) %0) unnamed_addr #0 comdat align 2 {
  %2 = alloca ptr, align 8
  store ptr %0, ptr %2, align 8, !tbaa !34
  ret void
}

; Function Attrs: inlinehint mustprogress ssp uwtable
define linkonce_odr void @_ZN5Eigen6MatrixIdLi3ELi3ELi0ELi3ELi3EEC2ERKS1_(ptr noundef nonnull align 8 dereferenceable(72) %0, ptr noundef nonnull align 8 dereferenceable(72) %1) unnamed_addr #6 comdat align 2 {
  %3 = alloca ptr, align 8
  %4 = alloca ptr, align 8
  store ptr %0, ptr %3, align 8, !tbaa !36
  store ptr %1, ptr %4, align 8, !tbaa !36
  %5 = load ptr, ptr %3, align 8
  %6 = load ptr, ptr %4, align 8, !tbaa !36
  call void @_ZN5Eigen15PlainObjectBaseINS_6MatrixIdLi3ELi3ELi0ELi3ELi3EEEEC2ERKS3_(ptr noundef nonnull align 8 dereferenceable(72) %5, ptr noundef nonnull align 8 dereferenceable(72) %6)
  ret void
}

; Function Attrs: inlinehint mustprogress nounwind ssp uwtable
define linkonce_odr void @_ZN6open3d7utility16IJsonConvertibleC2Ev(ptr noundef nonnull align 8 dereferenceable(8) %0) unnamed_addr #5 comdat align 2 {
  %2 = alloca ptr, align 8
  store ptr %0, ptr %2, align 8, !tbaa !34
  %3 = load ptr, ptr %2, align 8
  store ptr getelementptr inbounds inrange(-16, 40) ({ [7 x ptr] }, ptr @_ZTVN6open3d7utility16IJsonConvertibleE, i32 0, i32 0, i32 2), ptr %3, align 8, !tbaa !32
  ret void
}

; Function Attrs: mustprogress ssp uwtable
define void @_ZN6open3d6camera22PinholeCameraIntrinsicC2EiiRKN5Eigen6MatrixIdLi3ELi3ELi0ELi3ELi3EEE(ptr noundef nonnull align 8 dereferenceable(88) %0, i32 noundef %1, i32 noundef %2, ptr noundef nonnull align 8 dereferenceable(72) %3) unnamed_addr #1 align 2 personality ptr @__gxx_personality_v0 {
  %5 = alloca ptr, align 8
  %6 = alloca i32, align 4
  %7 = alloca i32, align 4
  %8 = alloca ptr, align 8
  %9 = alloca ptr, align 8
  %10 = alloca i32, align 4
  store ptr %0, ptr %5, align 8, !tbaa !4
  store i32 %1, ptr %6, align 4, !tbaa !98
  store i32 %2, ptr %7, align 4, !tbaa !98
  store ptr %3, ptr %8, align 8, !tbaa !36
  %11 = load ptr, ptr %5, align 8
  call void @_ZN6open3d7utility16IJsonConvertibleC2Ev(ptr noundef nonnull align 8 dereferenceable(8) %11) #14
  store ptr getelementptr inbounds inrange(-16, 40) ({ [7 x ptr] }, ptr @_ZTVN6open3d6camera22PinholeCameraIntrinsicE, i32 0, i32 0, i32 2), ptr %11, align 8, !tbaa !32
  %12 = getelementptr inbounds nuw %"class.open3d::camera::PinholeCameraIntrinsic", ptr %11, i32 0, i32 1
  %13 = load i32, ptr %6, align 4, !tbaa !98
  store i32 %13, ptr %12, align 8, !tbaa !11
  %14 = getelementptr inbounds nuw %"class.open3d::camera::PinholeCameraIntrinsic", ptr %11, i32 0, i32 2
  %15 = load i32, ptr %7, align 4, !tbaa !98
  store i32 %15, ptr %14, align 4, !tbaa !19
  %16 = getelementptr inbounds nuw %"class.open3d::camera::PinholeCameraIntrinsic", ptr %11, i32 0, i32 3
  %17 = load ptr, ptr %8, align 8, !tbaa !36
  invoke void @_ZN5Eigen6MatrixIdLi3ELi3ELi0ELi3ELi3EEC2ERKS1_(ptr noundef nonnull align 8 dereferenceable(72) %16, ptr noundef nonnull align 8 dereferenceable(72) %17)
          to label %18 unwind label %19

18:                                               ; preds = %4
  ret void

19:                                               ; preds = %4
  %20 = landingpad { ptr, i32 }
          cleanup
  %21 = extractvalue { ptr, i32 } %20, 0
  store ptr %21, ptr %9, align 8
  %22 = extractvalue { ptr, i32 } %20, 1
  store i32 %22, ptr %10, align 4
  call void @_ZN6open3d7utility16IJsonConvertibleD2Ev(ptr noundef nonnull align 8 dereferenceable(8) %11) #14
  br label %23

23:                                               ; preds = %19
  %24 = load ptr, ptr %9, align 8
  %25 = load i32, ptr %10, align 4
  %26 = insertvalue { ptr, i32 } poison, ptr %24, 0
  %27 = insertvalue { ptr, i32 } %26, i32 %25, 1
  resume { ptr, i32 } %27
}